target datalayout = "e-m:e-p270:32:32-p271:32:32-p272:64:64-i64:64-i128:128-f80:128-n8:16:32:64-S128"
target triple = "x86_64-pc-linux-gnu"

%struct.write_midx_context = type { ptr, i64, i64, ptr, ptr, ptr, i32, ptr, i64, ptr, ptr, i8, i32, i32, i32, i32, ptr, ptr }
%struct.object_id = type { [32 x i8], i32 }
%struct.bitmap_commit_cb = type { ptr, i64, i64, ptr }
%struct.commit = type { %struct.object, i64, ptr, ptr, i32 }
%struct.object = type { i32, %struct.object_id }

@.str.40 = private unnamed_addr constant [27 x i8] c"size_t overflow: %lu * %lu\00", align 1

; Function Attrs: inlinehint nounwind uwtable
define internal i64 @st_mult(i64 noundef %0, i64 noundef %1) #4 {
  %3 = alloca i64, align 8
  %4 = alloca i64, align 8
  store i64 %0, ptr %3, align 8, !tbaa !72
  store i64 %1, ptr %4, align 8, !tbaa !72
  %5 = load i64, ptr %3, align 8, !tbaa !72
  %6 = icmp ne i64 %5, 0
  br i1 %6, label %7, label %15

7:                                                ; preds = %2
  %8 = load i64, ptr %4, align 8, !tbaa !72
  %9 = load i64, ptr %3, align 8, !tbaa !72
  %10 = udiv i64 -1, %9
  %11 = icmp ugt i64 %8, %10
  br i1 %11, label %12, label %15

12:                                               ; preds = %7
  %13 = load i64, ptr %3, align 8, !tbaa !72
  %14 = load i64, ptr %4, align 8, !tbaa !72
  call void (ptr, ...) @die(ptr noundef @.str.40, i64 noundef %13, i64 noundef %14) #12
  unreachable

15:                                               ; preds = %7, %2
  %16 = load i64, ptr %3, align 8, !tbaa !72
  %17 = load i64, ptr %4, align 8, !tbaa !72
  %18 = mul i64 %16, %17
  ret i64 %18
}

; Function Attrs: nounwind uwtable
define internal void @bitmap_show_commit(ptr noundef %0, ptr noundef %1) #0 {
  %3 = alloca ptr, align 8
  %4 = alloca ptr, align 8
  %5 = alloca ptr, align 8
  %6 = alloca i32, align 4
  %7 = alloca i32, align 4
  store ptr %0, ptr %3, align 8, !tbaa !255
  store ptr %1, ptr %4, align 8, !tbaa !137
  call void @llvm.lifetime.start.p0(i64 8, ptr %5) #11
  %8 = load ptr, ptr %4, align 8, !tbaa !137
  store ptr %8, ptr %5, align 8, !tbaa !257
  call void @llvm.lifetime.start.p0(i64 4, ptr %6) #11
  %9 = load ptr, ptr %3, align 8, !tbaa !255
  %10 = getelementptr inbounds nuw %struct.commit, ptr %9, i32 0, i32 0
  %11 = getelementptr inbounds nuw %struct.object, ptr %10, i32 0, i32 1
  %12 = load ptr, ptr %5, align 8, !tbaa !257
  %13 = getelementptr inbounds nuw %struct.bitmap_commit_cb, ptr %12, i32 0, i32 3
  %14 = load ptr, ptr %13, align 8, !tbaa !178
  %15 = getelementptr inbounds nuw %struct.write_midx_context, ptr %14, i32 0, i32 7
  %16 = load ptr, ptr %15, align 8, !tbaa !75
  %17 = load ptr, ptr %5, align 8, !tbaa !257
  %18 = getelementptr inbounds nuw %struct.bitmap_commit_cb, ptr %17, i32 0, i32 3
  %19 = load ptr, ptr %18, align 8, !tbaa !178
  %20 = getelementptr inbounds nuw %struct.write_midx_context, ptr %19, i32 0, i32 8
  %21 = load i64, ptr %20, align 8, !tbaa !74
  %22 = call i32 @oid_pos(ptr noundef %11, ptr noundef %16, i64 noundef %21, ptr noundef @bitmap_oid_access)
  store i32 %22, ptr %6, align 4, !tbaa !11
  %23 = load i32, ptr %6, align 4, !tbaa !11
  %24 = icmp slt i32 %23, 0
  br i1 %24, label %25, label %26

25:                                               ; preds = %2
  store i32 1, ptr %7, align 4
  br label %87

26:                                               ; preds = %2
  br label %27

27:                                               ; preds = %26
  %28 = load ptr, ptr %5, align 8, !tbaa !257
  %29 = getelementptr inbounds nuw %struct.bitmap_commit_cb, ptr %28, i32 0, i32 1
  %30 = load i64, ptr %29, align 8, !tbaa !180
  %31 = add i64 %30, 1
  %32 = load ptr, ptr %5, align 8, !tbaa !257
  %33 = getelementptr inbounds nuw %struct.bitmap_commit_cb, ptr %32, i32 0, i32 2
  %34 = load i64, ptr %33, align 8, !tbaa !259
  %35 = icmp ugt i64 %31, %34
  br i1 %35, label %36, label %75

36:                                               ; preds = %27
  %37 = load ptr, ptr %5, align 8, !tbaa !257
  %38 = getelementptr inbounds nuw %struct.bitmap_commit_cb, ptr %37, i32 0, i32 2
  %39 = load i64, ptr %38, align 8, !tbaa !259
  %40 = add i64 %39, 16
  %41 = mul i64 %40, 3
  %42 = udiv i64 %41, 2
  %43 = load ptr, ptr %5, align 8, !tbaa !257
  %44 = getelementptr inbounds nuw %struct.bitmap_commit_cb, ptr %43, i32 0, i32 1
  %45 = load i64, ptr %44, align 8, !tbaa !180
  %46 = add i64 %45, 1
  %47 = icmp ult i64 %42, %46
  br i1 %47, label %48, label %55

48:                                               ; preds = %36
  %49 = load ptr, ptr %5, align 8, !tbaa !257
  %50 = getelementptr inbounds nuw %struct.bitmap_commit_cb, ptr %49, i32 0, i32 1
  %51 = load i64, ptr %50, align 8, !tbaa !180
  %52 = add i64 %51, 1
  %53 = load ptr, ptr %5, align 8, !tbaa !257
  %54 = getelementptr inbounds nuw %struct.bitmap_commit_cb, ptr %53, i32 0, i32 2
  store i64 %52, ptr %54, align 8, !tbaa !259
  br label %64

55:                                               ; preds = %36
  %56 = load ptr, ptr %5, align 8, !tbaa !257
  %57 = getelementptr inbounds nuw %struct.bitmap_commit_cb, ptr %56, i32 0, i32 2
  %58 = load i64, ptr %57, align 8, !tbaa !259
  %59 = add i64 %58, 16
  %60 = mul i64 %59, 3
  %61 = udiv i64 %60, 2
  %62 = load ptr, ptr %5, align 8, !tbaa !257
  %63 = getelementptr inbounds nuw %struct.bitmap_commit_cb, ptr %62, i32 0, i32 2
  store i64 %61, ptr %63, align 8, !tbaa !259
  br label %64

64:                                               ; preds = %55, %48
  %65 = load ptr, ptr %5, align 8, !tbaa !257
  %66 = getelementptr inbounds nuw %struct.bitmap_commit_cb, ptr %65, i32 0, i32 0
  %67 = load ptr, ptr %66, align 8, !tbaa !181
  %68 = load ptr, ptr %5, align 8, !tbaa !257
  %69 = getelementptr inbounds nuw %struct.bitmap_commit_cb, ptr %68, i32 0, i32 2
  %70 = load i64, ptr %69, align 8, !tbaa !259
  %71 = call i64 @st_mult(i64 noundef 8, i64 noundef %70)
  %72 = call ptr @xrealloc(ptr noundef %67, i64 noundef %71)
  %73 = load ptr, ptr %5, align 8, !tbaa !257
  %74 = getelementptr inbounds nuw %struct.bitmap_commit_cb, ptr %73, i32 0, i32 0
  store ptr %72, ptr %74, align 8, !tbaa !181
  br label %75

75:                                               ; preds = %64, %27
  br label %76

76:                                               ; preds = %75
  br label %77

77:                                               ; preds = %76
  %78 = load ptr, ptr %3, align 8, !tbaa !255
  %79 = load ptr, ptr %5, align 8, !tbaa !257
  %80 = getelementptr inbounds nuw %struct.bitmap_commit_cb, ptr %79, i32 0, i32 0
  %81 = load ptr, ptr %80, align 8, !tbaa !181
  %82 = load ptr, ptr %5, align 8, !tbaa !257
  %83 = getelementptr inbounds nuw %struct.bitmap_commit_cb, ptr %82, i32 0, i32 1
  %84 = load i64, ptr %83, align 8, !tbaa !180
  %85 = add i64 %84, 1
  store i64 %85, ptr %83, align 8, !tbaa !180
  %86 = getelementptr inbounds nuw ptr, ptr %81, i64 %84
  store ptr %78, ptr %86, align 8, !tbaa !255
  store i32 0, ptr %7, align 4
  br label %87

87:                                               ; preds = %77, %25
  call void @llvm.lifetime.end.p0(i64 4, ptr %6) #11
  call void @llvm.lifetime.end.p0(i64 8, ptr %5) #11
  %88 = load i32, ptr %7, align 4
  switch i32 %88, label %90 [
    i32 0, label %89
    i32 1, label %89
  ]

89:                                               ; preds = %87, %87
  ret void

90:                                               ; preds = %87
  unreachable
}