; Function Attrs: nounwind uwtable
define internal void @bitmap_show_commit(ptr noundef %0, ptr noundef captures(none) %1) #0 {
  %3 = getelementptr inbounds nuw i8, ptr %0, i64 4
  %4 = getelementptr inbounds nuw i8, ptr %1, i64 24
  %5 = load ptr, ptr %4, align 8, !tbaa !125
  %6 = getelementptr inbounds nuw i8, ptr %5, i64 56
  %7 = load ptr, ptr %6, align 8, !tbaa !78
  %8 = getelementptr inbounds nuw i8, ptr %5, i64 64
  %9 = load i64, ptr %8, align 8, !tbaa !79
  %10 = tail call i32 @oid_pos(ptr noundef nonnull %3, ptr noundef %7, i64 noundef %9, ptr noundef nonnull @bitmap_oid_access) #19
  %11 = icmp slt i32 %10, 0
  br i1 %11, label %31, label %12

12:                                               ; preds = %2
  %13 = getelementptr inbounds nuw i8, ptr %1, i64 8
  %14 = load i64, ptr %13, align 8, !tbaa !171
  %15 = add i64 %14, 1
  %16 = getelementptr inbounds nuw i8, ptr %1, i64 16
  %17 = load i64, ptr %16, align 8, !tbaa !218
  %18 = icmp ugt i64 %15, %17
  br i1 %18, label %19, label %._crit_edge

._crit_edge:                                      ; preds = %12
  %.pre = load ptr, ptr %1, align 8, !tbaa !172
  br label %27

19:                                               ; preds = %12
  %20 = mul i64 %17, 3
  %21 = add i64 %20, 48
  %22 = lshr i64 %21, 1
  %. = tail call i64 @llvm.umax.i64(i64 %22, i64 %15)
  store i64 %., ptr %16, align 8, !tbaa !218
  %mul.ov.i = icmp ugt i64 %., 2305843009213693951
  br i1 %mul.ov.i, label %23, label %st_mult.exit

23:                                               ; preds = %19
  tail call void (ptr, ...) @die(ptr noundef nonnull @.str.40, i64 noundef 8, i64 noundef %.) #20
  unreachable

st_mult.exit:                                     ; preds = %19
  %24 = load ptr, ptr %1, align 8, !tbaa !172
  %25 = shl nuw i64 %., 3
  %26 = tail call ptr @xrealloc(ptr noundef %24, i64 noundef %25) #19
  store ptr %26, ptr %1, align 8, !tbaa !172
  %.pre20 = load i64, ptr %13, align 8, !tbaa !171
  %.pre21 = add i64 %.pre20, 1
  br label %27

27:                                               ; preds = %._crit_edge, %st_mult.exit
  %.pre-phi = phi i64 [ %15, %._crit_edge ], [ %.pre21, %st_mult.exit ]
  %28 = phi i64 [ %14, %._crit_edge ], [ %.pre20, %st_mult.exit ]
  %29 = phi ptr [ %.pre, %._crit_edge ], [ %26, %st_mult.exit ]
  store i64 %.pre-phi, ptr %13, align 8, !tbaa !171
  %30 = getelementptr inbounds nuw ptr, ptr %29, i64 %28
  store ptr %0, ptr %30, align 8, !tbaa !219
  br label %31

31:                                               ; preds = %2, %27
  ret void
}